; Function Attrs: mustprogress nofree norecurse nosync nounwind willreturn memory(read, inaccessiblemem: none) uwtable
define noundef zeroext i1 @_ZN9grpc_core23IsTestExperimentEnabledEm(i64 noundef %0) local_unnamed_addr #7 personality ptr @__gxx_personality_v0 {
  %2 = load ptr, ptr @_ZN9grpc_core12_GLOBAL__N_118g_test_experimentsE, align 8, !tbaa !116
  %3 = trunc i64 %0 to i32
  %.val = load ptr, ptr %2, align 8, !tbaa !78
  %sext = shl i64 %0, 32
  %4 = ashr exact i64 %sext, 32
  %5 = sdiv i32 %3, 64
  %.sext.i = sext i32 %5 to i64
  %6 = getelementptr inbounds i64, ptr %.val, i64 %.sext.i
  %7 = and i64 %4, -9223372036854775745
  %8 = icmp ugt i64 %7, -9223372036854775808
  %storemerge.idx.i.i.i.i.i.i = select i1 %8, i64 -8, i64 0
  %storemerge.i.i.i.i.i.i = getelementptr inbounds i8, ptr %6, i64 %storemerge.idx.i.i.i.i.i.i
  %9 = and i64 %0, 63
  %10 = shl nuw i64 1, %9
  %11 = load i64, ptr %storemerge.i.i.i.i.i.i, align 8, !tbaa !37
  %12 = and i64 %11, %10
  %13 = icmp ne i64 %12, 0
  ret i1 %13
}